; Function Attrs: nounwind uwtable
define internal range(i32 -1, 18) i32 @notation1(ptr noundef writeonly captures(none) %0, i32 noundef %1, ptr noundef %2, ptr noundef %3, ptr noundef %4) #1 {
  switch i32 %1, label %13 [
    i32 15, label %14
    i32 18, label %6
  ]

6:                                                ; preds = %5
  %7 = getelementptr inbounds nuw i8, ptr %4, i64 40
  %8 = load ptr, ptr %7, align 8, !tbaa !10
  %9 = tail call i32 %8(ptr noundef %4, ptr noundef %2, ptr noundef %3, ptr noundef nonnull @KW_SYSTEM) #5
  %.not = icmp eq i32 %9, 0
  br i1 %.not, label %10, label %.sink.split

10:                                               ; preds = %6
  %11 = load ptr, ptr %7, align 8, !tbaa !10
  %12 = tail call i32 %11(ptr noundef nonnull %4, ptr noundef %2, ptr noundef %3, ptr noundef nonnull @KW_PUBLIC) #5
  %.not13 = icmp eq i32 %12, 0
  br i1 %.not13, label %13, label %.sink.split

13:                                               ; preds = %10, %5
  br label %.sink.split

.sink.split:                                      ; preds = %10, %6, %13
  %error.sink = phi ptr [ @error, %13 ], [ @notation3, %6 ], [ @notation2, %10 ]
  %.0.ph = phi i32 [ -1, %13 ], [ 17, %6 ], [ 17, %10 ]
  store ptr %error.sink, ptr %0, align 8, !tbaa !4
  br label %14

14:                                               ; preds = %.sink.split, %5
  %.0 = phi i32 [ 17, %5 ], [ %.0.ph, %.sink.split ]
  ret i32 %.0
}